target datalayout = "e-m:e-p270:32:32-p271:32:32-p272:64:64-i64:64-i128:128-f80:128-n8:16:32:64-S128"
target triple = "x86_64-pc-linux-gnu"

%"class.std::vector.8" = type { %"struct.std::_Vector_base.9" }
%"struct.std::_Vector_base.9" = type { %"struct.std::_Vector_base<int, std::allocator<int>>::_Vector_impl" }
%"struct.std::_Vector_base<int, std::allocator<int>>::_Vector_impl" = type { %"struct.std::_Vector_base<int, std::allocator<int>>::_Vector_impl_data" }
%"struct.std::_Vector_base<int, std::allocator<int>>::_Vector_impl_data" = type { ptr, ptr, ptr }
%"struct.Yosys::RTLIL::IdString" = type { i32 }
%"struct.Yosys::hashlib::hash_ops.30" = type { i8 }
%"struct.Yosys::RTLIL::SigSpec" = type { i32, i64, %"class.std::vector.212", %"class.std::vector.217" }
%"class.std::vector.212" = type { %"struct.std::_Vector_base.213" }
%"struct.std::_Vector_base.213" = type { %"struct.std::_Vector_base<Yosys::RTLIL::SigChunk, std::allocator<Yosys::RTLIL::SigChunk>>::_Vector_impl" }
%"struct.std::_Vector_base<Yosys::RTLIL::SigChunk, std::allocator<Yosys::RTLIL::SigChunk>>::_Vector_impl" = type { %"struct.std::_Vector_base<Yosys::RTLIL::SigChunk, std::allocator<Yosys::RTLIL::SigChunk>>::_Vector_impl_data" }
%"struct.std::_Vector_base<Yosys::RTLIL::SigChunk, std::allocator<Yosys::RTLIL::SigChunk>>::_Vector_impl_data" = type { ptr, ptr, ptr }
%"class.std::vector.217" = type { %"struct.std::_Vector_base.218" }
%"struct.std::_Vector_base.218" = type { %"struct.std::_Vector_base<Yosys::RTLIL::SigBit, std::allocator<Yosys::RTLIL::SigBit>>::_Vector_impl" }
%"struct.std::_Vector_base<Yosys::RTLIL::SigBit, std::allocator<Yosys::RTLIL::SigBit>>::_Vector_impl" = type { %"struct.std::_Vector_base<Yosys::RTLIL::SigBit, std::allocator<Yosys::RTLIL::SigBit>>::_Vector_impl_data" }
%"struct.std::_Vector_base<Yosys::RTLIL::SigBit, std::allocator<Yosys::RTLIL::SigBit>>::_Vector_impl_data" = type { ptr, ptr, ptr }
%"class.Yosys::hashlib::dict.523" = type <{ %"class.std::vector.8", %"class.std::vector.524", %"struct.Yosys::hashlib::hash_ops.30", [7 x i8] }>
%"class.std::vector.524" = type { %"struct.std::_Vector_base.525" }
%"struct.std::_Vector_base.525" = type { %"struct.std::_Vector_base<Yosys::hashlib::dict<Yosys::RTLIL::IdString, Yosys::RTLIL::SigSpec>::entry_t, std::allocator<Yosys::hashlib::dict<Yosys::RTLIL::IdString, Yosys::RTLIL::SigSpec>::entry_t>>::_Vector_impl" }
%"struct.std::_Vector_base<Yosys::hashlib::dict<Yosys::RTLIL::IdString, Yosys::RTLIL::SigSpec>::entry_t, std::allocator<Yosys::hashlib::dict<Yosys::RTLIL::IdString, Yosys::RTLIL::SigSpec>::entry_t>>::_Vector_impl" = type { %"struct.std::_Vector_base<Yosys::hashlib::dict<Yosys::RTLIL::IdString, Yosys::RTLIL::SigSpec>::entry_t, std::allocator<Yosys::hashlib::dict<Yosys::RTLIL::IdString, Yosys::RTLIL::SigSpec>::entry_t>>::_Vector_impl_data" }
%"struct.std::_Vector_base<Yosys::hashlib::dict<Yosys::RTLIL::IdString, Yosys::RTLIL::SigSpec>::entry_t, std::allocator<Yosys::hashlib::dict<Yosys::RTLIL::IdString, Yosys::RTLIL::SigSpec>::entry_t>>::_Vector_impl_data" = type { ptr, ptr, ptr }
%"struct.(anonymous namespace)::DftTagWorker::tag_set" = type { i32 }
%"class.Yosys::hashlib::dict<Yosys::RTLIL::IdString, Yosys::RTLIL::SigSpec>::const_iterator" = type <{ ptr, i32, [4 x i8] }>
%"struct.std::pair.540" = type { %"struct.Yosys::RTLIL::IdString", %"struct.Yosys::RTLIL::SigSpec" }
%"struct.Yosys::hashlib::dict<Yosys::RTLIL::IdString, Yosys::RTLIL::SigSpec>::entry_t" = type <{ %"struct.std::pair.540", i32, [4 x i8] }>

; Function Attrs: mustprogress nounwind uwtable
define linkonce_odr noundef nonnull align 8 dereferenceable(76) ptr @_ZNKSt6vectorIN5Yosys7hashlib4dictINS0_5RTLIL8IdStringENS3_7SigSpecENS1_8hash_opsIS4_EEE7entry_tESaIS9_EEixEm(ptr noundef nonnull align 8 dereferenceable(24) %0, i64 noundef %1) #5 comdat align 2 {
  %3 = alloca ptr, align 8
  %4 = alloca i64, align 8
  store ptr %0, ptr %3, align 8
  store i64 %1, ptr %4, align 8
  %5 = load ptr, ptr %3, align 8
  %6 = getelementptr inbounds %"struct.std::_Vector_base.525", ptr %5, i32 0, i32 0
  %7 = getelementptr inbounds %"struct.std::_Vector_base<Yosys::hashlib::dict<Yosys::RTLIL::IdString, Yosys::RTLIL::SigSpec>::entry_t, std::allocator<Yosys::hashlib::dict<Yosys::RTLIL::IdString, Yosys::RTLIL::SigSpec>::entry_t>>::_Vector_impl_data", ptr %6, i32 0, i32 0
  %8 = load ptr, ptr %7, align 8
  %9 = load i64, ptr %4, align 8
  %10 = getelementptr inbounds %"struct.Yosys::hashlib::dict<Yosys::RTLIL::IdString, Yosys::RTLIL::SigSpec>::entry_t", ptr %8, i64 %9
  ret ptr %10
}

; Function Attrs: mustprogress nounwind uwtable
define linkonce_odr void @_ZN5Yosys7hashlib4dictINS_5RTLIL8IdStringENS2_7SigSpecENS0_8hash_opsIS3_EEE14const_iteratorC2EPKS7_i(ptr noundef nonnull align 8 dereferenceable(12) %0, ptr noundef %1, i32 noundef %2) unnamed_addr #5 comdat align 2 {
  %4 = alloca ptr, align 8
  %5 = alloca ptr, align 8
  %6 = alloca i32, align 4
  store ptr %0, ptr %4, align 8
  store ptr %1, ptr %5, align 8
  store i32 %2, ptr %6, align 4
  %7 = load ptr, ptr %4, align 8
  %8 = getelementptr inbounds %"class.Yosys::hashlib::dict<Yosys::RTLIL::IdString, Yosys::RTLIL::SigSpec>::const_iterator", ptr %7, i32 0, i32 0
  %9 = load ptr, ptr %5, align 8
  store ptr %9, ptr %8, align 8
  %10 = getelementptr inbounds %"class.Yosys::hashlib::dict<Yosys::RTLIL::IdString, Yosys::RTLIL::SigSpec>::const_iterator", ptr %7, i32 0, i32 1
  %11 = load i32, ptr %6, align 4
  store i32 %11, ptr %10, align 8
  ret void
}

; Function Attrs: mustprogress nounwind uwtable
define linkonce_odr noundef i64 @_ZNKSt6vectorIN5Yosys7hashlib4dictINS0_5RTLIL8IdStringENS3_7SigSpecENS1_8hash_opsIS4_EEE7entry_tESaIS9_EE4sizeEv(ptr noundef nonnull align 8 dereferenceable(24) %0) #5 comdat align 2 {
  %2 = alloca ptr, align 8
  store ptr %0, ptr %2, align 8
  %3 = load ptr, ptr %2, align 8
  %4 = getelementptr inbounds %"struct.std::_Vector_base.525", ptr %3, i32 0, i32 0
  %5 = getelementptr inbounds %"struct.std::_Vector_base<Yosys::hashlib::dict<Yosys::RTLIL::IdString, Yosys::RTLIL::SigSpec>::entry_t, std::allocator<Yosys::hashlib::dict<Yosys::RTLIL::IdString, Yosys::RTLIL::SigSpec>::entry_t>>::_Vector_impl_data", ptr %4, i32 0, i32 1
  %6 = load ptr, ptr %5, align 8
  %7 = getelementptr inbounds %"struct.std::_Vector_base.525", ptr %3, i32 0, i32 0
  %8 = getelementptr inbounds %"struct.std::_Vector_base<Yosys::hashlib::dict<Yosys::RTLIL::IdString, Yosys::RTLIL::SigSpec>::entry_t, std::allocator<Yosys::hashlib::dict<Yosys::RTLIL::IdString, Yosys::RTLIL::SigSpec>::entry_t>>::_Vector_impl_data", ptr %7, i32 0, i32 0
  %9 = load ptr, ptr %8, align 8
  %10 = ptrtoint ptr %6 to i64
  %11 = ptrtoint ptr %9 to i64
  %12 = sub i64 %10, %11
  %13 = sdiv exact i64 %12, 80
  ret i64 %13
}

; Function Attrs: mustprogress nounwind uwtable
define linkonce_odr { ptr, i32 } @_ZN5Yosys7hashlib4dictINS_5RTLIL8IdStringENS2_7SigSpecENS0_8hash_opsIS3_EEE14const_iteratorppEv(ptr noundef nonnull align 8 dereferenceable(12) %0) #5 comdat align 2 {
  %2 = alloca %"class.Yosys::hashlib::dict<Yosys::RTLIL::IdString, Yosys::RTLIL::SigSpec>::const_iterator", align 8
  %3 = alloca ptr, align 8
  store ptr %0, ptr %3, align 8
  %4 = load ptr, ptr %3, align 8
  %5 = getelementptr inbounds %"class.Yosys::hashlib::dict<Yosys::RTLIL::IdString, Yosys::RTLIL::SigSpec>::const_iterator", ptr %4, i32 0, i32 1
  %6 = load i32, ptr %5, align 8
  %7 = add nsw i32 %6, -1
  store i32 %7, ptr %5, align 8
  call void @llvm.memcpy.p0.p0.i64(ptr align 8 %2, ptr align 8 %4, i64 16, i1 false)
  %8 = load { ptr, i32 }, ptr %2, align 8
  ret { ptr, i32 } %8
}

; Function Attrs: mustprogress nounwind uwtable
define linkonce_odr noundef nonnull align 8 dereferenceable(72) ptr @_ZNK5Yosys7hashlib4dictINS_5RTLIL8IdStringENS2_7SigSpecENS0_8hash_opsIS3_EEE14const_iteratordeEv(ptr noundef nonnull align 8 dereferenceable(12) %0) #5 comdat align 2 {
  %2 = alloca ptr, align 8
  store ptr %0, ptr %2, align 8
  %3 = load ptr, ptr %2, align 8
  %4 = getelementptr inbounds %"class.Yosys::hashlib::dict<Yosys::RTLIL::IdString, Yosys::RTLIL::SigSpec>::const_iterator", ptr %3, i32 0, i32 0
  %5 = load ptr, ptr %4, align 8
  %6 = getelementptr inbounds %"class.Yosys::hashlib::dict.523", ptr %5, i32 0, i32 1
  %7 = getelementptr inbounds %"class.Yosys::hashlib::dict<Yosys::RTLIL::IdString, Yosys::RTLIL::SigSpec>::const_iterator", ptr %3, i32 0, i32 1
  %8 = load i32, ptr %7, align 8
  %9 = sext i32 %8 to i64
  %10 = call noundef nonnull align 8 dereferenceable(76) ptr @_ZNKSt6vectorIN5Yosys7hashlib4dictINS0_5RTLIL8IdStringENS3_7SigSpecENS1_8hash_opsIS4_EEE7entry_tESaIS9_EEixEm(ptr noundef nonnull align 8 dereferenceable(24) %6, i64 noundef %9) #3
  %11 = getelementptr inbounds %"struct.Yosys::hashlib::dict<Yosys::RTLIL::IdString, Yosys::RTLIL::SigSpec>::entry_t", ptr %10, i32 0, i32 0
  ret ptr %11
}

; Function Attrs: mustprogress nounwind uwtable
define linkonce_odr noundef zeroext i1 @_ZNK5Yosys7hashlib4dictINS_5RTLIL8IdStringENS2_7SigSpecENS0_8hash_opsIS3_EEE14const_iteratorneERKS8_(ptr noundef nonnull align 8 dereferenceable(12) %0, ptr noundef nonnull align 8 dereferenceable(12) %1) #5 comdat align 2 {
  %3 = alloca ptr, align 8
  %4 = alloca ptr, align 8
  store ptr %0, ptr %3, align 8
  store ptr %1, ptr %4, align 8
  %5 = load ptr, ptr %3, align 8
  %6 = getelementptr inbounds %"class.Yosys::hashlib::dict<Yosys::RTLIL::IdString, Yosys::RTLIL::SigSpec>::const_iterator", ptr %5, i32 0, i32 1
  %7 = load i32, ptr %6, align 8
  %8 = load ptr, ptr %4, align 8
  %9 = getelementptr inbounds %"class.Yosys::hashlib::dict<Yosys::RTLIL::IdString, Yosys::RTLIL::SigSpec>::const_iterator", ptr %8, i32 0, i32 1
  %10 = load i32, ptr %9, align 8
  %11 = icmp ne i32 %7, %10
  ret i1 %11
}

; Function Attrs: mustprogress uwtable
define linkonce_odr { ptr, i32 } @_ZNK5Yosys7hashlib4dictINS_5RTLIL8IdStringENS2_7SigSpecENS0_8hash_opsIS3_EEE3endEv(ptr noundef nonnull align 8 dereferenceable(49) %0) #4 comdat align 2 {
  %2 = alloca %"class.Yosys::hashlib::dict<Yosys::RTLIL::IdString, Yosys::RTLIL::SigSpec>::const_iterator", align 8
  %3 = alloca ptr, align 8
  store ptr %0, ptr %3, align 8
  call void @_ZN5Yosys7hashlib4dictINS_5RTLIL8IdStringENS2_7SigSpecENS0_8hash_opsIS3_EEE14const_iteratorC2EPKS7_i(ptr noundef nonnull align 8 dereferenceable(12) %2, ptr noundef null, i32 noundef -1)
  %4 = load { ptr, i32 }, ptr %2, align 8
  ret { ptr, i32 } %4
}

; Function Attrs: mustprogress uwtable
define linkonce_odr { ptr, i32 } @_ZNK5Yosys7hashlib4dictINS_5RTLIL8IdStringENS2_7SigSpecENS0_8hash_opsIS3_EEE5beginEv(ptr noundef nonnull align 8 dereferenceable(49) %0) #4 comdat align 2 {
  %2 = alloca %"class.Yosys::hashlib::dict<Yosys::RTLIL::IdString, Yosys::RTLIL::SigSpec>::const_iterator", align 8
  %3 = alloca ptr, align 8
  store ptr %0, ptr %3, align 8
  %4 = load ptr, ptr %3, align 8
  %5 = getelementptr inbounds %"class.Yosys::hashlib::dict.523", ptr %4, i32 0, i32 1
  %6 = call noundef i64 @_ZNKSt6vectorIN5Yosys7hashlib4dictINS0_5RTLIL8IdStringENS3_7SigSpecENS1_8hash_opsIS4_EEE7entry_tESaIS9_EE4sizeEv(ptr noundef nonnull align 8 dereferenceable(24) %5) #3
  %7 = trunc i64 %6 to i32
  %8 = sub nsw i32 %7, 1
  call void @_ZN5Yosys7hashlib4dictINS_5RTLIL8IdStringENS2_7SigSpecENS0_8hash_opsIS3_EEE14const_iteratorC2EPKS7_i(ptr noundef nonnull align 8 dereferenceable(12) %2, ptr noundef %4, i32 noundef %8)
  %9 = load { ptr, i32 }, ptr %2, align 8
  ret { ptr, i32 } %9
}

; Function Attrs: mustprogress uwtable
define internal void @_ZN12_GLOBAL__N_112DftTagWorker8add_tagsEPN5Yosys5RTLIL4CellENS0_7tag_setE(ptr noundef nonnull align 8 dereferenceable(1272) %0, ptr noundef %1, i32 %2) #4 align 2 personality ptr @__gxx_personality_v0 {
  %4 = alloca %"struct.(anonymous namespace)::DftTagWorker::tag_set", align 4
  %5 = alloca ptr, align 8
  %6 = alloca ptr, align 8
  %7 = alloca ptr, align 8
  %8 = alloca %"class.Yosys::hashlib::dict<Yosys::RTLIL::IdString, Yosys::RTLIL::SigSpec>::const_iterator", align 8
  %9 = alloca %"class.Yosys::hashlib::dict<Yosys::RTLIL::IdString, Yosys::RTLIL::SigSpec>::const_iterator", align 8
  %10 = alloca ptr, align 8
  %11 = alloca %"struct.Yosys::RTLIL::SigSpec", align 8
  %12 = alloca %"struct.(anonymous namespace)::DftTagWorker::tag_set", align 4
  %13 = alloca ptr, align 8
  %14 = alloca i32, align 4
  %15 = alloca %"class.Yosys::hashlib::dict<Yosys::RTLIL::IdString, Yosys::RTLIL::SigSpec>::const_iterator", align 8
  %16 = getelementptr inbounds %"struct.(anonymous namespace)::DftTagWorker::tag_set", ptr %4, i32 0, i32 0
  store i32 %2, ptr %16, align 4
  store ptr %0, ptr %5, align 8
  store ptr %1, ptr %6, align 8
  %17 = load ptr, ptr %5, align 8
  %18 = load ptr, ptr %6, align 8
  %19 = call noundef nonnull align 8 dereferenceable(49) ptr @_ZNK5Yosys5RTLIL4Cell11connectionsEv(ptr noundef nonnull align 8 dereferenceable(192) %18)
  store ptr %19, ptr %7, align 8
  %20 = load ptr, ptr %7, align 8
  %21 = call { ptr, i32 } @_ZNK5Yosys7hashlib4dictINS_5RTLIL8IdStringENS2_7SigSpecENS0_8hash_opsIS3_EEE5beginEv(ptr noundef nonnull align 8 dereferenceable(49) %20)
  %22 = getelementptr inbounds { ptr, i32 }, ptr %8, i32 0, i32 0
  %23 = extractvalue { ptr, i32 } %21, 0
  store ptr %23, ptr %22, align 8
  %24 = getelementptr inbounds { ptr, i32 }, ptr %8, i32 0, i32 1
  %25 = extractvalue { ptr, i32 } %21, 1
  store i32 %25, ptr %24, align 8
  %26 = load ptr, ptr %7, align 8
  %27 = call { ptr, i32 } @_ZNK5Yosys7hashlib4dictINS_5RTLIL8IdStringENS2_7SigSpecENS0_8hash_opsIS3_EEE3endEv(ptr noundef nonnull align 8 dereferenceable(49) %26)
  %28 = getelementptr inbounds { ptr, i32 }, ptr %9, i32 0, i32 0
  %29 = extractvalue { ptr, i32 } %27, 0
  store ptr %29, ptr %28, align 8
  %30 = getelementptr inbounds { ptr, i32 }, ptr %9, i32 0, i32 1
  %31 = extractvalue { ptr, i32 } %27, 1
  store i32 %31, ptr %30, align 8
  br label %32

32:                                               ; preds = %51, %3
  %33 = call noundef zeroext i1 @_ZNK5Yosys7hashlib4dictINS_5RTLIL8IdStringENS2_7SigSpecENS0_8hash_opsIS3_EEE14const_iteratorneERKS8_(ptr noundef nonnull align 8 dereferenceable(12) %8, ptr noundef nonnull align 8 dereferenceable(12) %9)
  br i1 %33, label %34, label %57

34:                                               ; preds = %32
  %35 = call noundef nonnull align 8 dereferenceable(72) ptr @_ZNK5Yosys7hashlib4dictINS_5RTLIL8IdStringENS2_7SigSpecENS0_8hash_opsIS3_EEE14const_iteratordeEv(ptr noundef nonnull align 8 dereferenceable(12) %8)
  store ptr %35, ptr %10, align 8
  %36 = load ptr, ptr %6, align 8
  %37 = load ptr, ptr %10, align 8
  %38 = getelementptr inbounds %"struct.std::pair.540", ptr %37, i32 0, i32 0
  %39 = call noundef zeroext i1 @_ZNK5Yosys5RTLIL4Cell6outputERKNS0_8IdStringE(ptr noundef nonnull align 8 dereferenceable(192) %36, ptr noundef nonnull align 4 dereferenceable(4) %38)
  br i1 %39, label %40, label %50

40:                                               ; preds = %34
  %41 = load ptr, ptr %10, align 8
  %42 = getelementptr inbounds %"struct.std::pair.540", ptr %41, i32 0, i32 1
  call void @_ZN5Yosys5RTLIL7SigSpecC2ERKS1_(ptr noundef nonnull align 8 dereferenceable(64) %11, ptr noundef nonnull align 8 dereferenceable(64) %42)
  call void @llvm.memcpy.p0.p0.i64(ptr align 4 %12, ptr align 4 %4, i64 4, i1 false)
  %43 = getelementptr inbounds %"struct.(anonymous namespace)::DftTagWorker::tag_set", ptr %12, i32 0, i32 0
  %44 = load i32, ptr %43, align 4
  invoke void @_ZN12_GLOBAL__N_112DftTagWorker8add_tagsEN5Yosys5RTLIL7SigSpecENS0_7tag_setE(ptr noundef nonnull align 8 dereferenceable(1272) %17, ptr noundef %11, i32 %44)
          to label %45 unwind label %46

45:                                               ; preds = %40
  call void @_ZN5Yosys5RTLIL7SigSpecD2Ev(ptr noundef nonnull align 8 dereferenceable(64) %11) #3
  br label %50

46:                                               ; preds = %40
  %47 = landingpad { ptr, i32 }
          cleanup
  %48 = extractvalue { ptr, i32 } %47, 0
  store ptr %48, ptr %13, align 8
  %49 = extractvalue { ptr, i32 } %47, 1
  store i32 %49, ptr %14, align 4
  call void @_ZN5Yosys5RTLIL7SigSpecD2Ev(ptr noundef nonnull align 8 dereferenceable(64) %11) #3
  br label %58

50:                                               ; preds = %45, %34
  br label %51

51:                                               ; preds = %50
  %52 = call { ptr, i32 } @_ZN5Yosys7hashlib4dictINS_5RTLIL8IdStringENS2_7SigSpecENS0_8hash_opsIS3_EEE14const_iteratorppEv(ptr noundef nonnull align 8 dereferenceable(12) %8)
  %53 = getelementptr inbounds { ptr, i32 }, ptr %15, i32 0, i32 0
  %54 = extractvalue { ptr, i32 } %52, 0
  store ptr %54, ptr %53, align 8
  %55 = getelementptr inbounds { ptr, i32 }, ptr %15, i32 0, i32 1
  %56 = extractvalue { ptr, i32 } %52, 1
  store i32 %56, ptr %55, align 8
  br label %32

57:                                               ; preds = %32
  ret void

58:                                               ; preds = %46
  %59 = load ptr, ptr %13, align 8
  %60 = load i32, ptr %14, align 4
  %61 = insertvalue { ptr, i32 } poison, ptr %59, 0
  %62 = insertvalue { ptr, i32 } %61, i32 %60, 1
  resume { ptr, i32 } %62
}