; Function Attrs: mustprogress uwtable
define internal fastcc void @_ZN12_GLOBAL__N_112DftTagWorker8add_tagsEPN5Yosys5RTLIL4CellENS0_7tag_setE(ptr noundef nonnull align 8 dereferenceable(1272) %0, ptr noundef nonnull %1, i32 %2) unnamed_addr #4 align 2 personality ptr @__gxx_personality_v0 {
  %4 = alloca %"struct.Yosys::RTLIL::SigSpec", align 8
  %5 = tail call noundef nonnull align 8 dereferenceable(49) ptr @_ZNK5Yosys5RTLIL4Cell11connectionsEv(ptr noundef nonnull align 8 dereferenceable(192) %1)
  %6 = getelementptr inbounds i8, ptr %5, i64 24
  %7 = getelementptr inbounds i8, ptr %5, i64 32
  %8 = load ptr, ptr %7, align 8
  %9 = load ptr, ptr %6, align 8
  %10 = ptrtoint ptr %8 to i64
  %11 = ptrtoint ptr %9 to i64
  %12 = sub i64 %10, %11
  %13 = sdiv exact i64 %12, 80
  %14 = and i64 %13, 4294967295
  %.not16 = icmp eq i64 %14, 0
  br i1 %.not16, label %._crit_edge, label %.lr.ph

.lr.ph:                                           ; preds = %3
  %15 = getelementptr inbounds i8, ptr %4, i64 40
  %16 = getelementptr inbounds i8, ptr %4, i64 16
  %17 = getelementptr inbounds i8, ptr %4, i64 24
  %sext = shl i64 %13, 32
  %18 = ashr exact i64 %sext, 32
  br label %19

19:                                               ; preds = %.lr.ph, %_ZN5Yosys5RTLIL7SigSpecD2Ev.exit
  %indvars.iv = phi i64 [ %18, %.lr.ph ], [ %indvars.iv.next, %_ZN5Yosys5RTLIL7SigSpecD2Ev.exit ]
  %indvars.iv.next = add nsw i64 %indvars.iv, -1
  %20 = load ptr, ptr %6, align 8
  %21 = getelementptr inbounds %"struct.Yosys::hashlib::dict<Yosys::RTLIL::IdString, Yosys::RTLIL::SigSpec>::entry_t", ptr %20, i64 %indvars.iv.next
  %22 = call noundef zeroext i1 @_ZNK5Yosys5RTLIL4Cell6outputERKNS0_8IdStringE(ptr noundef nonnull align 8 dereferenceable(192) %1, ptr noundef nonnull align 4 dereferenceable(4) %21)
  br i1 %22, label %23, label %_ZN5Yosys5RTLIL7SigSpecD2Ev.exit

23:                                               ; preds = %19
  %24 = getelementptr inbounds i8, ptr %21, i64 8
  call void @_ZN5Yosys5RTLIL7SigSpecC2ERKS1_(ptr noundef nonnull align 8 dereferenceable(64) %4, ptr noundef nonnull align 8 dereferenceable(64) %24)
  invoke fastcc void @_ZN12_GLOBAL__N_112DftTagWorker8add_tagsEN5Yosys5RTLIL7SigSpecENS0_7tag_setE(ptr noundef nonnull align 8 dereferenceable(1272) %0, ptr noundef nonnull %4, i32 %2)
          to label %25 unwind label %36

25:                                               ; preds = %23
  %26 = load ptr, ptr %15, align 8
  %.not.i.i.i.i = icmp eq ptr %26, null
  br i1 %.not.i.i.i.i, label %_ZNSt6vectorIN5Yosys5RTLIL6SigBitESaIS2_EED2Ev.exit.i, label %27

27:                                               ; preds = %25
  call void @_ZdlPv(ptr noundef nonnull %26) #21
  br label %_ZNSt6vectorIN5Yosys5RTLIL6SigBitESaIS2_EED2Ev.exit.i

_ZNSt6vectorIN5Yosys5RTLIL6SigBitESaIS2_EED2Ev.exit.i: ; preds = %27, %25
  %28 = load ptr, ptr %16, align 8
  %29 = load ptr, ptr %17, align 8
  %.not4.i.i.i.i.i = icmp eq ptr %28, %29
  br i1 %.not4.i.i.i.i.i, label %_ZSt8_DestroyIPN5Yosys5RTLIL8SigChunkES2_EvT_S4_RSaIT0_E.exit.i.i, label %.lr.ph.i.i.i.i.i

.lr.ph.i.i.i.i.i:                                 ; preds = %_ZNSt6vectorIN5Yosys5RTLIL6SigBitESaIS2_EED2Ev.exit.i, %_ZSt8_DestroyIN5Yosys5RTLIL8SigChunkEEvPT_.exit.i.i.i.i.i
  %.05.i.i.i.i.i = phi ptr [ %33, %_ZSt8_DestroyIN5Yosys5RTLIL8SigChunkEEvPT_.exit.i.i.i.i.i ], [ %28, %_ZNSt6vectorIN5Yosys5RTLIL6SigBitESaIS2_EED2Ev.exit.i ]
  %30 = getelementptr inbounds i8, ptr %.05.i.i.i.i.i, i64 8
  %31 = load ptr, ptr %30, align 8
  %.not.i.i.i.i.i.i.i.i.i.i = icmp eq ptr %31, null
  br i1 %.not.i.i.i.i.i.i.i.i.i.i, label %_ZSt8_DestroyIN5Yosys5RTLIL8SigChunkEEvPT_.exit.i.i.i.i.i, label %32

32:                                               ; preds = %.lr.ph.i.i.i.i.i
  call void @_ZdlPv(ptr noundef nonnull %31) #21
  br label %_ZSt8_DestroyIN5Yosys5RTLIL8SigChunkEEvPT_.exit.i.i.i.i.i

_ZSt8_DestroyIN5Yosys5RTLIL8SigChunkEEvPT_.exit.i.i.i.i.i: ; preds = %32, %.lr.ph.i.i.i.i.i
  %33 = getelementptr inbounds i8, ptr %.05.i.i.i.i.i, i64 40
  %.not.i.i.i.i.i = icmp eq ptr %33, %29
  br i1 %.not.i.i.i.i.i, label %_ZSt8_DestroyIPN5Yosys5RTLIL8SigChunkES2_EvT_S4_RSaIT0_E.exitthread-pre-split.i.i, label %.lr.ph.i.i.i.i.i, !llvm.loop !20

_ZSt8_DestroyIPN5Yosys5RTLIL8SigChunkES2_EvT_S4_RSaIT0_E.exitthread-pre-split.i.i: ; preds = %_ZSt8_DestroyIN5Yosys5RTLIL8SigChunkEEvPT_.exit.i.i.i.i.i
  %.pr.i.i = load ptr, ptr %16, align 8
  br label %_ZSt8_DestroyIPN5Yosys5RTLIL8SigChunkES2_EvT_S4_RSaIT0_E.exit.i.i

_ZSt8_DestroyIPN5Yosys5RTLIL8SigChunkES2_EvT_S4_RSaIT0_E.exit.i.i: ; preds = %_ZSt8_DestroyIPN5Yosys5RTLIL8SigChunkES2_EvT_S4_RSaIT0_E.exitthread-pre-split.i.i, %_ZNSt6vectorIN5Yosys5RTLIL6SigBitESaIS2_EED2Ev.exit.i
  %34 = phi ptr [ %.pr.i.i, %_ZSt8_DestroyIPN5Yosys5RTLIL8SigChunkES2_EvT_S4_RSaIT0_E.exitthread-pre-split.i.i ], [ %28, %_ZNSt6vectorIN5Yosys5RTLIL6SigBitESaIS2_EED2Ev.exit.i ]
  %.not.i.i.i1.i = icmp eq ptr %34, null
  br i1 %.not.i.i.i1.i, label %_ZN5Yosys5RTLIL7SigSpecD2Ev.exit, label %35

35:                                               ; preds = %_ZSt8_DestroyIPN5Yosys5RTLIL8SigChunkES2_EvT_S4_RSaIT0_E.exit.i.i
  call void @_ZdlPv(ptr noundef nonnull %34) #21
  br label %_ZN5Yosys5RTLIL7SigSpecD2Ev.exit

36:                                               ; preds = %23
  %37 = landingpad { ptr, i32 }
          cleanup
  call void @_ZN5Yosys5RTLIL7SigSpecD2Ev(ptr noundef nonnull align 8 dereferenceable(64) %4) #20
  resume { ptr, i32 } %37

_ZN5Yosys5RTLIL7SigSpecD2Ev.exit:                 ; preds = %35, %_ZSt8_DestroyIPN5Yosys5RTLIL8SigChunkES2_EvT_S4_RSaIT0_E.exit.i.i, %19
  %38 = and i64 %indvars.iv.next, 4294967295
  %.not = icmp eq i64 %38, 0
  br i1 %.not, label %._crit_edge, label %19

._crit_edge:                                      ; preds = %_ZN5Yosys5RTLIL7SigSpecD2Ev.exit, %3
  ret void
}